target datalayout = "e-m:e-p270:32:32-p271:32:32-p272:64:64-i64:64-i128:128-f80:128-n8:16:32:64-S128"
target triple = "x86_64-pc-linux-gnu"

%struct.ref_dir = type { i32, i32, i32, ptr, ptr }
%struct.ref_entry = type { i8, %union.anon, [0 x i8] }
%union.anon = type { %struct.ref_value }
%struct.ref_value = type { %struct.object_id, ptr }
%struct.object_id = type { [32 x i8], i32 }
%struct.ref_cache = type { ptr, ptr, ptr }
%struct.string_slice = type { i64, ptr }

@.str = private unnamed_addr constant [17 x i8] c"refs/ref-cache.c\00", align 1
@.str.1 = private unnamed_addr constant [51 x i8] c"incomplete ref_store without fill_ref_dir function\00", align 1

; Function Attrs: inlinehint nounwind uwtable
define available_externally ptr @bsearch(ptr noundef nonnull %0, ptr noundef nonnull %1, i64 noundef %2, i64 noundef %3, ptr noundef nonnull %4) #2 {
  %6 = alloca ptr, align 8
  %7 = alloca ptr, align 8
  %8 = alloca ptr, align 8
  %9 = alloca i64, align 8
  %10 = alloca i64, align 8
  %11 = alloca ptr, align 8
  %12 = alloca i64, align 8
  %13 = alloca i64, align 8
  %14 = alloca i64, align 8
  %15 = alloca ptr, align 8
  %16 = alloca i32, align 4
  %17 = alloca i32, align 4
  store ptr %0, ptr %7, align 8, !tbaa !35
  store ptr %1, ptr %8, align 8, !tbaa !35
  store i64 %2, ptr %9, align 8, !tbaa !19
  store i64 %3, ptr %10, align 8, !tbaa !19
  store ptr %4, ptr %11, align 8, !tbaa !35
  call void @llvm.lifetime.start.p0(i64 8, ptr %12) #10
  call void @llvm.lifetime.start.p0(i64 8, ptr %13) #10
  call void @llvm.lifetime.start.p0(i64 8, ptr %14) #10
  call void @llvm.lifetime.start.p0(i64 8, ptr %15) #10
  call void @llvm.lifetime.start.p0(i64 4, ptr %16) #10
  store i64 0, ptr %12, align 8, !tbaa !19
  %18 = load i64, ptr %9, align 8, !tbaa !19
  store i64 %18, ptr %13, align 8, !tbaa !19
  br label %19

19:                                               ; preds = %50, %5
  %20 = load i64, ptr %12, align 8, !tbaa !19
  %21 = load i64, ptr %13, align 8, !tbaa !19
  %22 = icmp ult i64 %20, %21
  br i1 %22, label %23, label %51

23:                                               ; preds = %19
  %24 = load i64, ptr %12, align 8, !tbaa !19
  %25 = load i64, ptr %13, align 8, !tbaa !19
  %26 = add i64 %24, %25
  %27 = udiv i64 %26, 2
  store i64 %27, ptr %14, align 8, !tbaa !19
  %28 = load ptr, ptr %8, align 8, !tbaa !35
  %29 = load i64, ptr %14, align 8, !tbaa !19
  %30 = load i64, ptr %10, align 8, !tbaa !19
  %31 = mul i64 %29, %30
  %32 = getelementptr inbounds nuw i8, ptr %28, i64 %31
  store ptr %32, ptr %15, align 8, !tbaa !35
  %33 = load ptr, ptr %11, align 8, !tbaa !35
  %34 = load ptr, ptr %7, align 8, !tbaa !35
  %35 = load ptr, ptr %15, align 8, !tbaa !35
  %36 = call i32 %33(ptr noundef %34, ptr noundef %35)
  store i32 %36, ptr %16, align 4, !tbaa !31
  %37 = load i32, ptr %16, align 4, !tbaa !31
  %38 = icmp slt i32 %37, 0
  br i1 %38, label %39, label %41

39:                                               ; preds = %23
  %40 = load i64, ptr %14, align 8, !tbaa !19
  store i64 %40, ptr %13, align 8, !tbaa !19
  br label %50

41:                                               ; preds = %23
  %42 = load i32, ptr %16, align 4, !tbaa !31
  %43 = icmp sgt i32 %42, 0
  br i1 %43, label %44, label %47

44:                                               ; preds = %41
  %45 = load i64, ptr %14, align 8, !tbaa !19
  %46 = add i64 %45, 1
  store i64 %46, ptr %12, align 8, !tbaa !19
  br label %49

47:                                               ; preds = %41
  %48 = load ptr, ptr %15, align 8, !tbaa !35
  store ptr %48, ptr %6, align 8
  store i32 1, ptr %17, align 4
  br label %52

49:                                               ; preds = %44
  br label %50

50:                                               ; preds = %49, %39
  br label %19, !llvm.loop !44

51:                                               ; preds = %19
  store ptr null, ptr %6, align 8
  store i32 1, ptr %17, align 4
  br label %52

52:                                               ; preds = %51, %47
  call void @llvm.lifetime.end.p0(i64 4, ptr %16) #10
  call void @llvm.lifetime.end.p0(i64 8, ptr %15) #10
  call void @llvm.lifetime.end.p0(i64 8, ptr %14) #10
  call void @llvm.lifetime.end.p0(i64 8, ptr %13) #10
  call void @llvm.lifetime.end.p0(i64 8, ptr %12) #10
  %53 = load ptr, ptr %6, align 8
  ret ptr %53
}

; Function Attrs: nounwind uwtable
define dso_local ptr @get_ref_dir(ptr noundef %0) #0 {
  %2 = alloca ptr, align 8
  %3 = alloca ptr, align 8
  store ptr %0, ptr %2, align 8, !tbaa !9
  call void @llvm.lifetime.start.p0(i64 8, ptr %3) #10
  %4 = load ptr, ptr %2, align 8, !tbaa !9
  %5 = getelementptr inbounds nuw %struct.ref_entry, ptr %4, i32 0, i32 1
  store ptr %5, ptr %3, align 8, !tbaa !4
  %6 = load ptr, ptr %2, align 8, !tbaa !9
  %7 = getelementptr inbounds nuw %struct.ref_entry, ptr %6, i32 0, i32 0
  %8 = load i8, ptr %7, align 8, !tbaa !21
  %9 = zext i8 %8 to i32
  %10 = and i32 %9, 32
  %11 = icmp ne i32 %10, 0
  br i1 %11, label %12, label %41

12:                                               ; preds = %1
  %13 = load ptr, ptr %3, align 8, !tbaa !4
  %14 = getelementptr inbounds nuw %struct.ref_dir, ptr %13, i32 0, i32 3
  %15 = load ptr, ptr %14, align 8, !tbaa !22
  %16 = getelementptr inbounds nuw %struct.ref_cache, ptr %15, i32 0, i32 2
  %17 = load ptr, ptr %16, align 8, !tbaa !23
  %18 = icmp ne ptr %17, null
  br i1 %18, label %20, label %19

19:                                               ; preds = %12
  call void (ptr, i32, ptr, ...) @BUG_fl(ptr noundef @.str, i32 noundef 28, ptr noundef @.str.1) #9
  unreachable

20:                                               ; preds = %12
  %21 = load ptr, ptr %3, align 8, !tbaa !4
  %22 = getelementptr inbounds nuw %struct.ref_dir, ptr %21, i32 0, i32 3
  %23 = load ptr, ptr %22, align 8, !tbaa !22
  %24 = getelementptr inbounds nuw %struct.ref_cache, ptr %23, i32 0, i32 2
  %25 = load ptr, ptr %24, align 8, !tbaa !23
  %26 = load ptr, ptr %3, align 8, !tbaa !4
  %27 = getelementptr inbounds nuw %struct.ref_dir, ptr %26, i32 0, i32 3
  %28 = load ptr, ptr %27, align 8, !tbaa !22
  %29 = getelementptr inbounds nuw %struct.ref_cache, ptr %28, i32 0, i32 1
  %30 = load ptr, ptr %29, align 8, !tbaa !26
  %31 = load ptr, ptr %3, align 8, !tbaa !4
  %32 = load ptr, ptr %2, align 8, !tbaa !9
  %33 = getelementptr inbounds nuw %struct.ref_entry, ptr %32, i32 0, i32 2
  %34 = getelementptr inbounds [0 x i8], ptr %33, i64 0, i64 0
  call void %25(ptr noundef %30, ptr noundef %31, ptr noundef %34)
  %35 = load ptr, ptr %2, align 8, !tbaa !9
  %36 = getelementptr inbounds nuw %struct.ref_entry, ptr %35, i32 0, i32 0
  %37 = load i8, ptr %36, align 8, !tbaa !21
  %38 = zext i8 %37 to i32
  %39 = and i32 %38, -33
  %40 = trunc i32 %39 to i8
  store i8 %40, ptr %36, align 8, !tbaa !21
  br label %41

41:                                               ; preds = %20, %1
  %42 = load ptr, ptr %3, align 8, !tbaa !4
  call void @llvm.lifetime.end.p0(i64 8, ptr %3) #10
  ret ptr %42
}

; Function Attrs: nounwind uwtable
define dso_local i32 @search_ref_dir(ptr noundef %0, ptr noundef %1, i64 noundef %2) #0 {
  %4 = alloca i32, align 4
  %5 = alloca ptr, align 8
  %6 = alloca ptr, align 8
  %7 = alloca i64, align 8
  %8 = alloca ptr, align 8
  %9 = alloca %struct.string_slice, align 8
  %10 = alloca i32, align 4
  store ptr %0, ptr %5, align 8, !tbaa !4
  store ptr %1, ptr %6, align 8, !tbaa !27
  store i64 %2, ptr %7, align 8, !tbaa !19
  call void @llvm.lifetime.start.p0(i64 8, ptr %8) #10
  call void @llvm.lifetime.start.p0(i64 16, ptr %9) #10
  %11 = load ptr, ptr %6, align 8, !tbaa !27
  %12 = icmp eq ptr %11, null
  br i1 %12, label %18, label %13

13:                                               ; preds = %3
  %14 = load ptr, ptr %5, align 8, !tbaa !4
  %15 = getelementptr inbounds nuw %struct.ref_dir, ptr %14, i32 0, i32 0
  %16 = load i32, ptr %15, align 8, !tbaa !11
  %17 = icmp ne i32 %16, 0
  br i1 %17, label %19, label %18

18:                                               ; preds = %13, %3
  store i32 -1, ptr %4, align 4
  store i32 1, ptr %10, align 4
  br label %46

19:                                               ; preds = %13
  %20 = load ptr, ptr %5, align 8, !tbaa !4
  call void @sort_ref_dir(ptr noundef %20)
  %21 = load i64, ptr %7, align 8, !tbaa !19
  %22 = getelementptr inbounds nuw %struct.string_slice, ptr %9, i32 0, i32 0
  store i64 %21, ptr %22, align 8, !tbaa !38
  %23 = load ptr, ptr %6, align 8, !tbaa !27
  %24 = getelementptr inbounds nuw %struct.string_slice, ptr %9, i32 0, i32 1
  store ptr %23, ptr %24, align 8, !tbaa !40
  %25 = load ptr, ptr %5, align 8, !tbaa !4
  %26 = getelementptr inbounds nuw %struct.ref_dir, ptr %25, i32 0, i32 4
  %27 = load ptr, ptr %26, align 8, !tbaa !17
  %28 = load ptr, ptr %5, align 8, !tbaa !4
  %29 = getelementptr inbounds nuw %struct.ref_dir, ptr %28, i32 0, i32 0
  %30 = load i32, ptr %29, align 8, !tbaa !11
  %31 = sext i32 %30 to i64
  %32 = call ptr @bsearch(ptr noundef %9, ptr noundef %27, i64 noundef %31, i64 noundef 8, ptr noundef @ref_entry_cmp_sslice)
  store ptr %32, ptr %8, align 8, !tbaa !41
  %33 = load ptr, ptr %8, align 8, !tbaa !41
  %34 = icmp ne ptr %33, null
  br i1 %34, label %36, label %35

35:                                               ; preds = %19
  store i32 -1, ptr %4, align 4
  store i32 1, ptr %10, align 4
  br label %46

36:                                               ; preds = %19
  %37 = load ptr, ptr %8, align 8, !tbaa !41
  %38 = load ptr, ptr %5, align 8, !tbaa !4
  %39 = getelementptr inbounds nuw %struct.ref_dir, ptr %38, i32 0, i32 4
  %40 = load ptr, ptr %39, align 8, !tbaa !17
  %41 = ptrtoint ptr %37 to i64
  %42 = ptrtoint ptr %40 to i64
  %43 = sub i64 %41, %42
  %44 = sdiv exact i64 %43, 8
  %45 = trunc i64 %44 to i32
  store i32 %45, ptr %4, align 4
  store i32 1, ptr %10, align 4
  br label %46

46:                                               ; preds = %36, %35, %18
  call void @llvm.lifetime.end.p0(i64 16, ptr %9) #10
  call void @llvm.lifetime.end.p0(i64 8, ptr %8) #10
  %47 = load i32, ptr %4, align 4
  ret i32 %47
}

; Function Attrs: nounwind uwtable
define internal ptr @search_for_subdir(ptr noundef %0, ptr noundef %1, i64 noundef %2) #0 {
  %4 = alloca ptr, align 8
  %5 = alloca ptr, align 8
  %6 = alloca ptr, align 8
  %7 = alloca i64, align 8
  %8 = alloca i32, align 4
  %9 = alloca ptr, align 8
  %10 = alloca i32, align 4
  store ptr %0, ptr %5, align 8, !tbaa !4
  store ptr %1, ptr %6, align 8, !tbaa !27
  store i64 %2, ptr %7, align 8, !tbaa !19
  call void @llvm.lifetime.start.p0(i64 4, ptr %8) #10
  %11 = load ptr, ptr %5, align 8, !tbaa !4
  %12 = load ptr, ptr %6, align 8, !tbaa !27
  %13 = load i64, ptr %7, align 8, !tbaa !19
  %14 = call i32 @search_ref_dir(ptr noundef %11, ptr noundef %12, i64 noundef %13)
  store i32 %14, ptr %8, align 4, !tbaa !31
  call void @llvm.lifetime.start.p0(i64 8, ptr %9) #10
  %15 = load i32, ptr %8, align 4, !tbaa !31
  %16 = icmp eq i32 %15, -1
  br i1 %16, label %17, label %18

17:                                               ; preds = %3
  store ptr null, ptr %4, align 8
  store i32 1, ptr %10, align 4
  br label %28

18:                                               ; preds = %3
  %19 = load ptr, ptr %5, align 8, !tbaa !4
  %20 = getelementptr inbounds nuw %struct.ref_dir, ptr %19, i32 0, i32 4
  %21 = load ptr, ptr %20, align 8, !tbaa !17
  %22 = load i32, ptr %8, align 4, !tbaa !31
  %23 = sext i32 %22 to i64
  %24 = getelementptr inbounds ptr, ptr %21, i64 %23
  %25 = load ptr, ptr %24, align 8, !tbaa !9
  store ptr %25, ptr %9, align 8, !tbaa !9
  %26 = load ptr, ptr %9, align 8, !tbaa !9
  %27 = call ptr @get_ref_dir(ptr noundef %26)
  store ptr %27, ptr %4, align 8
  store i32 1, ptr %10, align 4
  br label %28

28:                                               ; preds = %18, %17
  call void @llvm.lifetime.end.p0(i64 8, ptr %9) #10
  call void @llvm.lifetime.end.p0(i64 4, ptr %8) #10
  %29 = load ptr, ptr %4, align 8
  ret ptr %29
}

; Function Attrs: nounwind uwtable
define internal ptr @find_containing_dir(ptr noundef %0, ptr noundef %1) #0 {
  %3 = alloca ptr, align 8
  %4 = alloca ptr, align 8
  %5 = alloca ptr, align 8
  %6 = alloca i64, align 8
  %7 = alloca ptr, align 8
  %8 = alloca i32, align 4
  store ptr %0, ptr %3, align 8, !tbaa !4
  store ptr %1, ptr %4, align 8, !tbaa !27
  call void @llvm.lifetime.start.p0(i64 8, ptr %5) #10
  %9 = load ptr, ptr %4, align 8, !tbaa !27
  %10 = call ptr @strchr(ptr noundef %9, i32 noundef 47) #8
  store ptr %10, ptr %5, align 8, !tbaa !27
  br label %11

11:                                               ; preds = %33, %2
  %12 = load ptr, ptr %5, align 8, !tbaa !27
  %13 = icmp ne ptr %12, null
  br i1 %13, label %14, label %37

14:                                               ; preds = %11
  call void @llvm.lifetime.start.p0(i64 8, ptr %6) #10
  %15 = load ptr, ptr %5, align 8, !tbaa !27
  %16 = load ptr, ptr %4, align 8, !tbaa !27
  %17 = ptrtoint ptr %15 to i64
  %18 = ptrtoint ptr %16 to i64
  %19 = sub i64 %17, %18
  %20 = add nsw i64 %19, 1
  store i64 %20, ptr %6, align 8, !tbaa !19
  call void @llvm.lifetime.start.p0(i64 8, ptr %7) #10
  %21 = load ptr, ptr %3, align 8, !tbaa !4
  %22 = load ptr, ptr %4, align 8, !tbaa !27
  %23 = load i64, ptr %6, align 8, !tbaa !19
  %24 = call ptr @search_for_subdir(ptr noundef %21, ptr noundef %22, i64 noundef %23)
  store ptr %24, ptr %7, align 8, !tbaa !4
  %25 = load ptr, ptr %7, align 8, !tbaa !4
  %26 = icmp ne ptr %25, null
  br i1 %26, label %28, label %27

27:                                               ; preds = %14
  store ptr null, ptr %3, align 8, !tbaa !4
  store i32 2, ptr %8, align 4
  br label %30

28:                                               ; preds = %14
  %29 = load ptr, ptr %7, align 8, !tbaa !4
  store ptr %29, ptr %3, align 8, !tbaa !4
  store i32 0, ptr %8, align 4
  br label %30

30:                                               ; preds = %28, %27
  call void @llvm.lifetime.end.p0(i64 8, ptr %7) #10
  call void @llvm.lifetime.end.p0(i64 8, ptr %6) #10
  %31 = load i32, ptr %8, align 4
  switch i32 %31, label %39 [
    i32 0, label %32
    i32 2, label %37
  ]

32:                                               ; preds = %30
  br label %33

33:                                               ; preds = %32
  %34 = load ptr, ptr %5, align 8, !tbaa !27
  %35 = getelementptr inbounds i8, ptr %34, i64 1
  %36 = call ptr @strchr(ptr noundef %35, i32 noundef 47) #8
  store ptr %36, ptr %5, align 8, !tbaa !27
  br label %11, !llvm.loop !47

37:                                               ; preds = %30, %11
  %38 = load ptr, ptr %3, align 8, !tbaa !4
  store i32 1, ptr %8, align 4
  call void @llvm.lifetime.end.p0(i64 8, ptr %5) #10
  ret ptr %38

39:                                               ; preds = %30
  unreachable
}